target datalayout = "e-m:e-p270:32:32-p271:32:32-p272:64:64-i64:64-i128:128-f80:128-n8:16:32:64-S128"
target triple = "x86_64-unknown-linux-gnu"

%"class.QuantLib::Date" = type { i64 }
%"class.QuantLib::CatSimulation" = type { ptr, %"class.QuantLib::Date", %"class.QuantLib::Date" }
%"class.QuantLib::BetaRiskSimulation" = type { %"class.QuantLib::CatSimulation", double, i32, double, %"class.std::mersenne_twister_engine", %"class.std::exponential_distribution", %"class.std::gamma_distribution", %"class.std::gamma_distribution" }
%"class.std::mersenne_twister_engine" = type { [624 x i64], i64 }
%"class.std::exponential_distribution" = type { %"struct.std::exponential_distribution<>::param_type" }
%"struct.std::exponential_distribution<>::param_type" = type { double }
%"class.std::gamma_distribution" = type { %"struct.std::gamma_distribution<>::param_type", %"class.std::normal_distribution" }
%"struct.std::gamma_distribution<>::param_type" = type { double, double, double, double }
%"class.std::normal_distribution" = type <{ %"struct.std::normal_distribution<>::param_type", double, i8, [7 x i8] }>
%"struct.std::normal_distribution<>::param_type" = type { double, double }

; Function Attrs: mustprogress uwtable
define linkonce_odr noundef double @_ZNSt18gamma_distributionIdEclISt23mersenne_twister_engineImLm32ELm624ELm397ELm31ELm2567483615ELm11ELm4294967295ELm7ELm2636928640ELm15ELm4022730752ELm18ELm1812433253EEEEdRT_(ptr noundef nonnull align 8 dereferenceable(64) %this, ptr noundef nonnull align 8 dereferenceable(5000) %__urng) #3 comdat align 2 {
entry:
  %this.addr = alloca ptr, align 8
  %__urng.addr = alloca ptr, align 8
  store ptr %this, ptr %this.addr, align 8, !tbaa !3
  store ptr %__urng, ptr %__urng.addr, align 8, !tbaa !3
  %this1 = load ptr, ptr %this.addr, align 8
  %0 = load ptr, ptr %__urng.addr, align 8, !tbaa !3
  %_M_param = getelementptr inbounds nuw %"class.std::gamma_distribution", ptr %this1, i32 0, i32 0
  %call = call noundef double @_ZNSt18gamma_distributionIdEclISt23mersenne_twister_engineImLm32ELm624ELm397ELm31ELm2567483615ELm11ELm4294967295ELm7ELm2636928640ELm15ELm4022730752ELm18ELm1812433253EEEEdRT_RKNS0_10param_typeE(ptr noundef nonnull align 8 dereferenceable(64) %this1, ptr noundef nonnull align 8 dereferenceable(5000) %0, ptr noundef nonnull align 8 dereferenceable(32) %_M_param)
  ret double %call
}

; Function Attrs: mustprogress uwtable
define noundef double @_ZN8QuantLib18BetaRiskSimulation12generateBetaEv(ptr noundef nonnull align 8 dereferenceable(5184) %this) #3 align 2 {
entry:
  %this.addr = alloca ptr, align 8
  %X = alloca double, align 8
  %Y = alloca double, align 8
  store ptr %this, ptr %this.addr, align 8, !tbaa !3
  %this1 = load ptr, ptr %this.addr, align 8
  call void @llvm.lifetime.start.p0(i64 8, ptr %X) #18
  %gammaAlpha_ = getelementptr inbounds nuw %"class.QuantLib::BetaRiskSimulation", ptr %this1, i32 0, i32 6
  %rng_ = getelementptr inbounds nuw %"class.QuantLib::BetaRiskSimulation", ptr %this1, i32 0, i32 4
  %call = call noundef double @_ZNSt18gamma_distributionIdEclISt23mersenne_twister_engineImLm32ELm624ELm397ELm31ELm2567483615ELm11ELm4294967295ELm7ELm2636928640ELm15ELm4022730752ELm18ELm1812433253EEEEdRT_(ptr noundef nonnull align 8 dereferenceable(64) %gammaAlpha_, ptr noundef nonnull align 8 dereferenceable(5000) %rng_)
  store double %call, ptr %X, align 8, !tbaa !31
  call void @llvm.lifetime.start.p0(i64 8, ptr %Y) #18
  %gammaBeta_ = getelementptr inbounds nuw %"class.QuantLib::BetaRiskSimulation", ptr %this1, i32 0, i32 7
  %rng_2 = getelementptr inbounds nuw %"class.QuantLib::BetaRiskSimulation", ptr %this1, i32 0, i32 4
  %call3 = call noundef double @_ZNSt18gamma_distributionIdEclISt23mersenne_twister_engineImLm32ELm624ELm397ELm31ELm2567483615ELm11ELm4294967295ELm7ELm2636928640ELm15ELm4022730752ELm18ELm1812433253EEEEdRT_(ptr noundef nonnull align 8 dereferenceable(64) %gammaBeta_, ptr noundef nonnull align 8 dereferenceable(5000) %rng_2)
  store double %call3, ptr %Y, align 8, !tbaa !31
  %0 = load double, ptr %X, align 8, !tbaa !31
  %maxLoss_ = getelementptr inbounds nuw %"class.QuantLib::BetaRiskSimulation", ptr %this1, i32 0, i32 1
  %1 = load double, ptr %maxLoss_, align 8, !tbaa !40
  %mul = fmul double %0, %1
  %2 = load double, ptr %X, align 8, !tbaa !31
  %3 = load double, ptr %Y, align 8, !tbaa !31
  %add = fadd double %2, %3
  %div = fdiv double %mul, %add
  call void @llvm.lifetime.end.p0(i64 8, ptr %Y) #18
  call void @llvm.lifetime.end.p0(i64 8, ptr %X) #18
  ret double %div
}