; Function Attrs: mustprogress uwtable
define noundef double @_ZN8QuantLib18BetaRiskSimulation12generateBetaEv(ptr noundef nonnull align 8 dereferenceable(5184) %this) local_unnamed_addr #0 align 2 {
entry:
  %gammaAlpha_ = getelementptr inbounds nuw i8, ptr %this, i64 5056
  %rng_ = getelementptr inbounds nuw i8, ptr %this, i64 48
  %call.i = tail call noundef double @_ZNSt18gamma_distributionIdEclISt23mersenne_twister_engineImLm32ELm624ELm397ELm31ELm2567483615ELm11ELm4294967295ELm7ELm2636928640ELm15ELm4022730752ELm18ELm1812433253EEEEdRT_RKNS0_10param_typeE(ptr noundef nonnull align 8 dereferenceable(64) %gammaAlpha_, ptr noundef nonnull align 8 dereferenceable(5000) %rng_, ptr noundef nonnull align 8 dereferenceable(32) %gammaAlpha_)
  %gammaBeta_ = getelementptr inbounds nuw i8, ptr %this, i64 5120
  %call.i2 = tail call noundef double @_ZNSt18gamma_distributionIdEclISt23mersenne_twister_engineImLm32ELm624ELm397ELm31ELm2567483615ELm11ELm4294967295ELm7ELm2636928640ELm15ELm4022730752ELm18ELm1812433253EEEEdRT_RKNS0_10param_typeE(ptr noundef nonnull align 8 dereferenceable(64) %gammaBeta_, ptr noundef nonnull align 8 dereferenceable(5000) %rng_, ptr noundef nonnull align 8 dereferenceable(32) %gammaBeta_)
  %maxLoss_ = getelementptr inbounds nuw i8, ptr %this, i64 24
  %0 = load double, ptr %maxLoss_, align 8, !tbaa !50
  %mul = fmul double %call.i, %0
  %add = fadd double %call.i, %call.i2
  %div = fdiv double %mul, %add
  ret double %div
}